; Function Attrs: nounwind uwtable
define dso_local ptr @bb_job_alloc(ptr noundef readonly captures(none) %0, i32 noundef %1) local_unnamed_addr #0 {
  %3 = urem i32 %1, 100
  %4 = tail call ptr @slurm_xcalloc(i64 noundef 1, i64 noundef 144, i1 noundef zeroext true, i1 noundef zeroext false, ptr noundef nonnull @.str, i32 noundef 1306, ptr noundef nonnull @__func__.bb_job_alloc) #17
  %5 = getelementptr inbounds nuw i8, ptr %4, i64 40
  store i32 -559074286, ptr %5, align 8
  %6 = getelementptr inbounds nuw i8, ptr %0, i64 176
  %7 = load ptr, ptr %6, align 8
  %8 = zext nneg i32 %3 to i64
  %9 = getelementptr inbounds nuw ptr, ptr %7, i64 %8
  %10 = load ptr, ptr %9, align 8
  %11 = getelementptr inbounds nuw i8, ptr %4, i64 64
  store ptr %10, ptr %11, align 8
  %12 = getelementptr inbounds nuw i8, ptr %4, i64 24
  store i32 %1, ptr %12, align 8
  %13 = getelementptr inbounds nuw i8, ptr %4, i64 44
  store i32 -1, ptr %13, align 4
  %14 = load ptr, ptr %6, align 8
  %15 = getelementptr inbounds nuw ptr, ptr %14, i64 %8
  store ptr %4, ptr %15, align 8
  ret ptr %4
}